target datalayout = "e-m:e-p270:32:32-p271:32:32-p272:64:64-i64:64-i128:128-f80:128-n8:16:32:64-S128"
target triple = "x86_64-pc-linux-gnu"

%struct.pty_info = type { i32, i32 }
%struct.child_info = type { i32, i32, ptr, i64, ptr }
%struct.passwd = type { ptr, ptr, i32, i32, ptr, ptr, ptr }

@rb_cFile = external global i64, align 8
@.str.7 = private unnamed_addr constant [6 x i8] c"dup()\00", align 1
@.str.8 = private unnamed_addr constant [8 x i8] c"/bin/sh\00", align 1
@.str.9 = private unnamed_addr constant [6 x i8] c"SHELL\00", align 1
@.str.10 = private unnamed_addr constant [5 x i8] c"USER\00", align 1
@.str.11 = private unnamed_addr constant [12 x i8] c"fork failed\00", align 1

; Function Attrs: inlinehint nounwind sspstrong willreturn memory(none) uwtable
define internal i64 @RB_INT2FIX(i64 noundef %0) #7 {
  %2 = alloca i64, align 8
  %3 = alloca i64, align 8
  %4 = alloca i64, align 8
  %5 = alloca i64, align 8
  %6 = alloca i64, align 8
  %7 = alloca i64, align 8
  store i64 %0, ptr %2, align 8, !tbaa !6
  call void @llvm.lifetime.start.p0(i64 8, ptr %3) #15
  %8 = load i64, ptr %2, align 8, !tbaa !6
  store i64 %8, ptr %3, align 8, !tbaa !6
  call void @llvm.lifetime.start.p0(i64 8, ptr %4) #15
  %9 = load i64, ptr %3, align 8, !tbaa !6
  %10 = shl i64 %9, 1
  %11 = add i64 %10, 1
  store i64 %11, ptr %4, align 8, !tbaa !6
  call void @llvm.lifetime.start.p0(i64 8, ptr %5) #15
  %12 = load i64, ptr %4, align 8, !tbaa !6
  store i64 %12, ptr %5, align 8, !tbaa !6
  call void @llvm.lifetime.start.p0(i64 8, ptr %6) #15
  %13 = load i64, ptr %5, align 8, !tbaa !6
  store i64 %13, ptr %6, align 8, !tbaa !6
  call void @llvm.lifetime.start.p0(i64 8, ptr %7) #15
  %14 = load i64, ptr %6, align 8, !tbaa !6
  store i64 %14, ptr %7, align 8, !tbaa !6
  %15 = load i64, ptr %7, align 8, !tbaa !6
  call void @llvm.lifetime.end.p0(i64 8, ptr %7) #15
  call void @llvm.lifetime.end.p0(i64 8, ptr %6) #15
  call void @llvm.lifetime.end.p0(i64 8, ptr %5) #15
  call void @llvm.lifetime.end.p0(i64 8, ptr %4) #15
  call void @llvm.lifetime.end.p0(i64 8, ptr %3) #15
  ret i64 %15
}

; Function Attrs: nounwind sspstrong uwtable
define internal void @getDevice(ptr noundef %0, ptr noundef %1, ptr noundef %2, i32 noundef %3) #0 {
  %5 = alloca ptr, align 8
  %6 = alloca ptr, align 8
  %7 = alloca ptr, align 8
  %8 = alloca i32, align 4
  store ptr %0, ptr %5, align 8, !tbaa !35
  store ptr %1, ptr %6, align 8, !tbaa !35
  store ptr %2, ptr %7, align 8, !tbaa !20
  store i32 %3, ptr %8, align 4, !tbaa !10
  %9 = load ptr, ptr %5, align 8, !tbaa !35
  %10 = load ptr, ptr %6, align 8, !tbaa !35
  %11 = load ptr, ptr %7, align 8, !tbaa !20
  %12 = load i32, ptr %8, align 4, !tbaa !10
  %13 = call i32 @get_device_once(ptr noundef %9, ptr noundef %10, ptr noundef %11, i32 noundef %12, i32 noundef 0)
  %14 = icmp ne i32 %13, 0
  br i1 %14, label %15, label %21

15:                                               ; preds = %4
  call void @rb_gc()
  %16 = load ptr, ptr %5, align 8, !tbaa !35
  %17 = load ptr, ptr %6, align 8, !tbaa !35
  %18 = load ptr, ptr %7, align 8, !tbaa !20
  %19 = load i32, ptr %8, align 4, !tbaa !10
  %20 = call i32 @get_device_once(ptr noundef %16, ptr noundef %17, ptr noundef %18, i32 noundef %19, i32 noundef 1)
  br label %21

21:                                               ; preds = %15, %4
  ret void
}

; Function Attrs: inlinehint nounwind sspstrong uwtable
define internal i64 @rb_int2num_inline(i32 noundef %0) #4 {
  %2 = alloca i64, align 8
  %3 = alloca i32, align 4
  store i32 %0, ptr %3, align 4, !tbaa !10
  %4 = load i32, ptr %3, align 4, !tbaa !10
  %5 = sext i32 %4 to i64
  %6 = icmp slt i64 %5, 4611686018427387904
  br i1 %6, label %7, label %15

7:                                                ; preds = %1
  %8 = load i32, ptr %3, align 4, !tbaa !10
  %9 = sext i32 %8 to i64
  %10 = icmp sge i64 %9, -4611686018427387904
  br i1 %10, label %11, label %15

11:                                               ; preds = %7
  %12 = load i32, ptr %3, align 4, !tbaa !10
  %13 = sext i32 %12 to i64
  %14 = call i64 @RB_INT2FIX(i64 noundef %13) #17
  store i64 %14, ptr %2, align 8
  br label %19

15:                                               ; preds = %7, %1
  %16 = load i32, ptr %3, align 4, !tbaa !10
  %17 = sext i32 %16 to i64
  %18 = call i64 @rb_int2big(i64 noundef %17)
  store i64 %18, ptr %2, align 8
  br label %19

19:                                               ; preds = %15, %11
  %20 = load i64, ptr %2, align 8
  ret i64 %20
}

; Function Attrs: nounwind sspstrong uwtable
define internal void @establishShell(i32 noundef %0, ptr noundef %1, ptr noundef %2, ptr noundef %3) #0 {
  %5 = alloca i32, align 4
  %6 = alloca ptr, align 8
  %7 = alloca ptr, align 8
  %8 = alloca ptr, align 8
  %9 = alloca i32, align 4
  %10 = alloca i32, align 4
  %11 = alloca i32, align 4
  %12 = alloca i32, align 4
  %13 = alloca ptr, align 8
  %14 = alloca i64, align 8
  %15 = alloca %struct.child_info, align 8
  %16 = alloca [32 x i8], align 16
  %17 = alloca ptr, align 8
  %18 = alloca ptr, align 8
  %19 = alloca ptr, align 8
  %20 = alloca i32, align 4
  %21 = alloca ptr, align 8
  %22 = alloca ptr, align 8
  store i32 %0, ptr %5, align 4, !tbaa !10
  store ptr %1, ptr %6, align 8, !tbaa !12
  store ptr %2, ptr %7, align 8, !tbaa !18
  store ptr %3, ptr %8, align 8, !tbaa !20
  call void @llvm.lifetime.start.p0(i64 4, ptr %9) #15
  call void @llvm.lifetime.start.p0(i64 4, ptr %10) #15
  call void @llvm.lifetime.start.p0(i64 4, ptr %11) #15
  store i32 0, ptr %11, align 4, !tbaa !10
  call void @llvm.lifetime.start.p0(i64 4, ptr %12) #15
  call void @llvm.lifetime.start.p0(i64 8, ptr %13) #15
  call void @llvm.lifetime.start.p0(i64 8, ptr %14) #15
  call void @llvm.lifetime.start.p0(i64 32, ptr %15) #15
  call void @llvm.lifetime.start.p0(i64 32, ptr %16) #15
  %23 = load i32, ptr %5, align 4, !tbaa !10
  %24 = icmp eq i32 %23, 0
  br i1 %24, label %25, label %58

25:                                               ; preds = %4
  call void @llvm.lifetime.start.p0(i64 8, ptr %17) #15
  store ptr @.str.8, ptr %17, align 8, !tbaa !20
  %26 = call ptr @getenv(ptr noundef @.str.9) #15
  store ptr %26, ptr %13, align 8, !tbaa !20
  %27 = icmp ne ptr %26, null
  br i1 %27, label %28, label %30

28:                                               ; preds = %25
  %29 = load ptr, ptr %13, align 8, !tbaa !20
  store ptr %29, ptr %17, align 8, !tbaa !20
  br label %55

30:                                               ; preds = %25
  call void @llvm.lifetime.start.p0(i64 8, ptr %18) #15
  %31 = call ptr @getenv(ptr noundef @.str.10) #15
  store ptr %31, ptr %18, align 8, !tbaa !20
  %32 = load ptr, ptr %18, align 8, !tbaa !20
  %33 = icmp eq ptr %32, null
  br i1 %33, label %34, label %36

34:                                               ; preds = %30
  %35 = call ptr @getlogin()
  store ptr %35, ptr %18, align 8, !tbaa !20
  br label %36

36:                                               ; preds = %34, %30
  %37 = load ptr, ptr %18, align 8, !tbaa !20
  %38 = icmp ne ptr %37, null
  br i1 %38, label %39, label %54

39:                                               ; preds = %36
  call void @llvm.lifetime.start.p0(i64 8, ptr %19) #15
  %40 = load ptr, ptr %18, align 8, !tbaa !20
  %41 = call ptr @getpwnam(ptr noundef %40)
  store ptr %41, ptr %19, align 8, !tbaa !22
  %42 = load ptr, ptr %19, align 8, !tbaa !22
  %43 = icmp ne ptr %42, null
  br i1 %43, label %44, label %53

44:                                               ; preds = %39
  %45 = load ptr, ptr %19, align 8, !tbaa !22
  %46 = getelementptr inbounds nuw %struct.passwd, ptr %45, i32 0, i32 6
  %47 = load ptr, ptr %46, align 8, !tbaa !24
  %48 = icmp ne ptr %47, null
  br i1 %48, label %49, label %53

49:                                               ; preds = %44
  %50 = load ptr, ptr %19, align 8, !tbaa !22
  %51 = getelementptr inbounds nuw %struct.passwd, ptr %50, i32 0, i32 6
  %52 = load ptr, ptr %51, align 8, !tbaa !24
  store ptr %52, ptr %17, align 8, !tbaa !20
  br label %53

53:                                               ; preds = %49, %44, %39
  call void @llvm.lifetime.end.p0(i64 8, ptr %19) #15
  br label %54

54:                                               ; preds = %53, %36
  call void @llvm.lifetime.end.p0(i64 8, ptr %18) #15
  br label %55

55:                                               ; preds = %54, %28
  %56 = load ptr, ptr %17, align 8, !tbaa !20
  %57 = call i64 @rb_str_new_cstr(ptr noundef %56)
  store i64 %57, ptr %14, align 8, !tbaa !6
  store i32 1, ptr %5, align 4, !tbaa !10
  store ptr %14, ptr %6, align 8, !tbaa !12
  call void @llvm.lifetime.end.p0(i64 8, ptr %17) #15
  br label %58

58:                                               ; preds = %55, %4
  %59 = load i32, ptr %5, align 4, !tbaa !10
  %60 = load ptr, ptr %6, align 8, !tbaa !12
  %61 = call i64 @rb_execarg_new(i32 noundef %59, ptr noundef %60, i32 noundef 1, i32 noundef 0)
  %62 = getelementptr inbounds nuw %struct.child_info, ptr %15, i32 0, i32 3
  store i64 %61, ptr %62, align 8, !tbaa !26
  %63 = getelementptr inbounds nuw %struct.child_info, ptr %15, i32 0, i32 3
  %64 = load i64, ptr %63, align 8, !tbaa !26
  %65 = call ptr @rb_execarg_get(i64 noundef %64)
  %66 = getelementptr inbounds nuw %struct.child_info, ptr %15, i32 0, i32 4
  store ptr %65, ptr %66, align 8, !tbaa !29
  %67 = getelementptr inbounds nuw %struct.child_info, ptr %15, i32 0, i32 3
  %68 = load i64, ptr %67, align 8, !tbaa !26
  call void @rb_execarg_parent_start(i64 noundef %68)
  %69 = load ptr, ptr %8, align 8, !tbaa !20
  call void @getDevice(ptr noundef %9, ptr noundef %10, ptr noundef %69, i32 noundef 0)
  %70 = load i32, ptr %9, align 4, !tbaa !10
  %71 = getelementptr inbounds nuw %struct.child_info, ptr %15, i32 0, i32 0
  store i32 %70, ptr %71, align 8, !tbaa !30
  %72 = load i32, ptr %10, align 4, !tbaa !10
  %73 = getelementptr inbounds nuw %struct.child_info, ptr %15, i32 0, i32 1
  store i32 %72, ptr %73, align 4, !tbaa !31
  %74 = load ptr, ptr %8, align 8, !tbaa !20
  %75 = getelementptr inbounds nuw %struct.child_info, ptr %15, i32 0, i32 2
  store ptr %74, ptr %75, align 8, !tbaa !32
  %76 = getelementptr inbounds [32 x i8], ptr %16, i64 0, i64 0
  store i8 0, ptr %76, align 16, !tbaa !33
  %77 = getelementptr inbounds [32 x i8], ptr %16, i64 0, i64 0
  %78 = call i32 @rb_fork_async_signal_safe(ptr noundef %11, ptr noundef @chfunc, ptr noundef %15, i64 noundef 4, ptr noundef %77, i64 noundef 32)
  store i32 %78, ptr %12, align 4, !tbaa !10
  %79 = load i32, ptr %12, align 4, !tbaa !10
  %80 = icmp slt i32 %79, 0
  br i1 %80, label %81, label %106

81:                                               ; preds = %58
  call void @llvm.lifetime.start.p0(i64 4, ptr %20) #15
  %82 = call ptr @rb_errno_ptr()
  %83 = load i32, ptr %82, align 4, !tbaa !10
  store i32 %83, ptr %20, align 4, !tbaa !10
  %84 = load i32, ptr %9, align 4, !tbaa !10
  %85 = call i32 @close(i32 noundef %84)
  %86 = load i32, ptr %10, align 4, !tbaa !10
  %87 = call i32 @close(i32 noundef %86)
  %88 = getelementptr inbounds nuw %struct.child_info, ptr %15, i32 0, i32 3
  %89 = load i64, ptr %88, align 8, !tbaa !26
  call void @rb_execarg_parent_end(i64 noundef %89)
  %90 = load i32, ptr %20, align 4, !tbaa !10
  %91 = call ptr @rb_errno_ptr()
  store i32 %90, ptr %91, align 4, !tbaa !10
  %92 = load i32, ptr %11, align 4, !tbaa !10
  %93 = icmp ne i32 %92, 0
  br i1 %93, label %94, label %96

94:                                               ; preds = %81
  %95 = load i32, ptr %11, align 4, !tbaa !10
  call void @rb_jump_tag(i32 noundef %95) #16
  unreachable

96:                                               ; preds = %81
  %97 = getelementptr inbounds [32 x i8], ptr %16, i64 0, i64 0
  %98 = load i8, ptr %97, align 16, !tbaa !33
  %99 = sext i8 %98 to i32
  %100 = icmp ne i32 %99, 0
  br i1 %100, label %101, label %103

101:                                              ; preds = %96
  %102 = getelementptr inbounds [32 x i8], ptr %16, i64 0, i64 0
  br label %104

103:                                              ; preds = %96
  br label %104

104:                                              ; preds = %103, %101
  %105 = phi ptr [ %102, %101 ], [ @.str.11, %103 ]
  call void @rb_sys_fail(ptr noundef %105) #16
  unreachable

106:                                              ; preds = %58
  %107 = load i32, ptr %10, align 4, !tbaa !10
  %108 = call i32 @close(i32 noundef %107)
  %109 = getelementptr inbounds nuw %struct.child_info, ptr %15, i32 0, i32 3
  %110 = load i64, ptr %109, align 8, !tbaa !26
  call void @rb_execarg_parent_end(i64 noundef %110)
  %111 = load i32, ptr %12, align 4, !tbaa !10
  %112 = load ptr, ptr %7, align 8, !tbaa !18
  %113 = getelementptr inbounds nuw %struct.pty_info, ptr %112, i32 0, i32 1
  store i32 %111, ptr %113, align 4, !tbaa !17
  %114 = load i32, ptr %9, align 4, !tbaa !10
  %115 = load ptr, ptr %7, align 8, !tbaa !18
  %116 = getelementptr inbounds nuw %struct.pty_info, ptr %115, i32 0, i32 0
  store i32 %114, ptr %116, align 4, !tbaa !15
  call void @llvm.lifetime.start.p0(i64 8, ptr %21) #15
  %117 = getelementptr inbounds nuw %struct.child_info, ptr %15, i32 0, i32 3
  store ptr %117, ptr %21, align 8, !tbaa !12
  call void asm sideeffect "", "*m,~{dirflag},~{fpsr},~{flags}"(ptr elementtype(ptr) %21) #15, !srcloc !34
  %118 = load ptr, ptr %21, align 8, !tbaa !12
  store ptr %118, ptr %22, align 8, !tbaa !12
  call void @llvm.lifetime.end.p0(i64 8, ptr %21) #15
  %119 = load ptr, ptr %22, align 8, !tbaa !12
  %120 = load volatile i64, ptr %119, align 8, !tbaa !6
  call void @llvm.lifetime.end.p0(i64 32, ptr %16) #15
  call void @llvm.lifetime.end.p0(i64 32, ptr %15) #15
  call void @llvm.lifetime.end.p0(i64 8, ptr %14) #15
  call void @llvm.lifetime.end.p0(i64 8, ptr %13) #15
  call void @llvm.lifetime.end.p0(i64 4, ptr %12) #15
  call void @llvm.lifetime.end.p0(i64 4, ptr %11) #15
  call void @llvm.lifetime.end.p0(i64 4, ptr %10) #15
  call void @llvm.lifetime.end.p0(i64 4, ptr %9) #15
  ret void
}

; Function Attrs: nounwind sspstrong uwtable
define internal i64 @pty_getpty(i32 noundef %0, ptr noundef %1, i64 noundef %2) #0 {
  %4 = alloca i64, align 8
  %5 = alloca i32, align 4
  %6 = alloca ptr, align 8
  %7 = alloca i64, align 8
  %8 = alloca i64, align 8
  %9 = alloca %struct.pty_info, align 4
  %10 = alloca [16 x i8], align 16
  %11 = alloca i64, align 8
  %12 = alloca i64, align 8
  %13 = alloca i32, align 4
  %14 = alloca i64, align 8
  %15 = alloca i32, align 4
  store i32 %0, ptr %5, align 4, !tbaa !10
  store ptr %1, ptr %6, align 8, !tbaa !12
  store i64 %2, ptr %7, align 8, !tbaa !6
  call void @llvm.lifetime.start.p0(i64 8, ptr %8) #15
  call void @llvm.lifetime.start.p0(i64 8, ptr %9) #15
  call void @llvm.lifetime.start.p0(i64 16, ptr %10) #15
  %16 = load i32, ptr %5, align 4, !tbaa !10
  %17 = load ptr, ptr %6, align 8, !tbaa !12
  %18 = getelementptr inbounds [16 x i8], ptr %10, i64 0, i64 0
  call void @establishShell(i32 noundef %16, ptr noundef %17, ptr noundef %9, ptr noundef %18)
  call void @llvm.lifetime.start.p0(i64 8, ptr %11) #15
  %19 = getelementptr inbounds [16 x i8], ptr %10, i64 0, i64 0
  %20 = call i64 @rb_str_new_cstr(ptr noundef %19)
  %21 = call i64 @rb_obj_freeze(i64 noundef %20)
  store i64 %21, ptr %11, align 8, !tbaa !6
  call void @llvm.lifetime.start.p0(i64 8, ptr %12) #15
  %22 = load i64, ptr @rb_cFile, align 8, !tbaa !6
  %23 = getelementptr inbounds nuw %struct.pty_info, ptr %9, i32 0, i32 0
  %24 = load i32, ptr %23, align 4, !tbaa !15
  %25 = load i64, ptr %11, align 8, !tbaa !6
  %26 = call i64 @rb_io_open_descriptor(i64 noundef %22, i32 noundef %24, i32 noundef 1, i64 noundef %25, i64 noundef 4, ptr noundef null)
  store i64 %26, ptr %12, align 8, !tbaa !6
  call void @llvm.lifetime.start.p0(i64 4, ptr %13) #15
  %27 = getelementptr inbounds nuw %struct.pty_info, ptr %9, i32 0, i32 0
  %28 = load i32, ptr %27, align 4, !tbaa !15
  %29 = call i32 @rb_cloexec_dup(i32 noundef %28)
  store i32 %29, ptr %13, align 4, !tbaa !10
  %30 = load i32, ptr %13, align 4, !tbaa !10
  %31 = icmp eq i32 %30, -1
  br i1 %31, label %32, label %33

32:                                               ; preds = %3
  call void @rb_sys_fail(ptr noundef @.str.7) #16
  unreachable

33:                                               ; preds = %3
  call void @llvm.lifetime.start.p0(i64 8, ptr %14) #15
  %34 = load i64, ptr @rb_cFile, align 8, !tbaa !6
  %35 = load i32, ptr %13, align 4, !tbaa !10
  %36 = load i64, ptr %11, align 8, !tbaa !6
  %37 = call i64 @rb_io_open_descriptor(i64 noundef %34, i32 noundef %35, i32 noundef 2186, i64 noundef %36, i64 noundef 4, ptr noundef null)
  store i64 %37, ptr %14, align 8, !tbaa !6
  %38 = call i64 @rb_ary_new_capa(i64 noundef 3)
  store i64 %38, ptr %8, align 8, !tbaa !6
  %39 = load i64, ptr %8, align 8, !tbaa !6
  %40 = load i64, ptr %12, align 8, !tbaa !6
  call void @rb_ary_store(i64 noundef %39, i64 noundef 0, i64 noundef %40)
  %41 = load i64, ptr %8, align 8, !tbaa !6
  %42 = load i64, ptr %14, align 8, !tbaa !6
  call void @rb_ary_store(i64 noundef %41, i64 noundef 1, i64 noundef %42)
  %43 = load i64, ptr %8, align 8, !tbaa !6
  %44 = getelementptr inbounds nuw %struct.pty_info, ptr %9, i32 0, i32 1
  %45 = load i32, ptr %44, align 4, !tbaa !17
  %46 = call i64 @rb_int2num_inline(i32 noundef %45)
  call void @rb_ary_store(i64 noundef %43, i64 noundef 2, i64 noundef %46)
  %47 = call i32 @rb_block_given_p()
  %48 = icmp ne i32 %47, 0
  br i1 %48, label %49, label %53

49:                                               ; preds = %33
  %50 = load i64, ptr %8, align 8, !tbaa !6
  %51 = ptrtoint ptr %9 to i64
  %52 = call i64 @rb_ensure(ptr noundef @rb_yield, i64 noundef %50, ptr noundef @pty_detach_process, i64 noundef %51)
  store i64 4, ptr %4, align 8
  store i32 1, ptr %15, align 4
  br label %55

53:                                               ; preds = %33
  %54 = load i64, ptr %8, align 8, !tbaa !6
  store i64 %54, ptr %4, align 8
  store i32 1, ptr %15, align 4
  br label %55

55:                                               ; preds = %53, %49
  call void @llvm.lifetime.end.p0(i64 8, ptr %14) #15
  call void @llvm.lifetime.end.p0(i64 4, ptr %13) #15
  call void @llvm.lifetime.end.p0(i64 8, ptr %12) #15
  call void @llvm.lifetime.end.p0(i64 8, ptr %11) #15
  call void @llvm.lifetime.end.p0(i64 16, ptr %10) #15
  call void @llvm.lifetime.end.p0(i64 8, ptr %9) #15
  call void @llvm.lifetime.end.p0(i64 8, ptr %8) #15
  %56 = load i64, ptr %4, align 8
  ret i64 %56
}