; Function Attrs: nounwind sspstrong uwtable
define internal noundef i64 @pty_getpty(i32 noundef %0, ptr noundef %1, i64 %2) #0 {
  %4 = alloca i32, align 4
  %5 = alloca i32, align 4
  %6 = alloca i32, align 4
  %7 = alloca i64, align 8
  %8 = alloca %struct.child_info, align 8
  %9 = alloca [32 x i8], align 16
  %10 = alloca ptr, align 8
  %11 = alloca %struct.pty_info, align 4
  %12 = alloca [16 x i8], align 16
  call void @llvm.lifetime.start.p0(i64 8, ptr nonnull %11) #10
  call void @llvm.lifetime.start.p0(i64 16, ptr nonnull %12) #10
  call void @llvm.lifetime.start.p0(i64 4, ptr nonnull %4) #10
  call void @llvm.lifetime.start.p0(i64 4, ptr nonnull %5) #10
  call void @llvm.lifetime.start.p0(i64 4, ptr nonnull %6) #10
  store i32 0, ptr %6, align 4, !tbaa !10
  call void @llvm.lifetime.start.p0(i64 8, ptr nonnull %7) #10
  call void @llvm.lifetime.start.p0(i64 32, ptr nonnull %8) #10
  call void @llvm.lifetime.start.p0(i64 32, ptr nonnull %9) #10
  %13 = icmp eq i32 %0, 0
  br i1 %13, label %14, label %27

14:                                               ; preds = %3
  %15 = tail call ptr @getenv(ptr noundef nonnull @.str.9) #10
  %.not.i = icmp eq ptr %15, null
  br i1 %.not.i, label %16, label %25

16:                                               ; preds = %14
  %17 = tail call ptr @getenv(ptr noundef nonnull @.str.10) #10
  %18 = icmp eq ptr %17, null
  br i1 %18, label %19, label %.thread.i

19:                                               ; preds = %16
  %20 = tail call ptr @getlogin() #10
  %.not28.i = icmp eq ptr %20, null
  br i1 %.not28.i, label %25, label %.thread.i

.thread.i:                                        ; preds = %19, %16
  %.02035.i = phi ptr [ %20, %19 ], [ %17, %16 ]
  %21 = tail call ptr @getpwnam(ptr noundef nonnull %.02035.i)
  %.not29.i = icmp eq ptr %21, null
  br i1 %.not29.i, label %25, label %22

22:                                               ; preds = %.thread.i
  %23 = getelementptr inbounds nuw i8, ptr %21, i64 40
  %24 = load ptr, ptr %23, align 8, !tbaa !12
  %.not30.i = icmp eq ptr %24, null
  %spec.select.i = select i1 %.not30.i, ptr @.str.8, ptr %24
  br label %25

25:                                               ; preds = %22, %.thread.i, %19, %14
  %.019.i = phi ptr [ %15, %14 ], [ @.str.8, %19 ], [ @.str.8, %.thread.i ], [ %spec.select.i, %22 ]
  %26 = tail call i64 @rb_str_new_cstr(ptr noundef nonnull %.019.i) #10
  store i64 %26, ptr %7, align 8, !tbaa !6
  br label %27

27:                                               ; preds = %25, %3
  %.018.i = phi ptr [ %7, %25 ], [ %1, %3 ]
  %.0.i = phi i32 [ 1, %25 ], [ %0, %3 ]
  %28 = call i64 @rb_execarg_new(i32 noundef %.0.i, ptr noundef %.018.i, i32 noundef 1, i32 noundef 0) #10
  %29 = getelementptr inbounds nuw i8, ptr %8, i64 16
  store i64 %28, ptr %29, align 8, !tbaa !16
  %30 = call ptr @rb_execarg_get(i64 noundef %28) #10
  %31 = getelementptr inbounds nuw i8, ptr %8, i64 24
  store ptr %30, ptr %31, align 8, !tbaa !19
  call void @rb_execarg_parent_start(i64 noundef %28) #10
  %32 = call fastcc i32 @get_device_once(ptr noundef nonnull %4, ptr noundef nonnull %5, ptr noundef nonnull %12, i32 noundef 0, i32 noundef 0)
  %.not.i.i = icmp eq i32 %32, 0
  br i1 %.not.i.i, label %getDevice.exit.i, label %33

33:                                               ; preds = %27
  call void @rb_gc() #10
  %34 = call fastcc i32 @get_device_once(ptr noundef nonnull %4, ptr noundef nonnull %5, ptr noundef nonnull %12, i32 noundef 0, i32 noundef 1)
  br label %getDevice.exit.i

getDevice.exit.i:                                 ; preds = %33, %27
  %35 = load i32, ptr %4, align 4, !tbaa !10
  store i32 %35, ptr %8, align 8, !tbaa !20
  %36 = load i32, ptr %5, align 4, !tbaa !10
  %37 = getelementptr inbounds nuw i8, ptr %8, i64 4
  store i32 %36, ptr %37, align 4, !tbaa !21
  %38 = getelementptr inbounds nuw i8, ptr %8, i64 8
  store ptr %12, ptr %38, align 8, !tbaa !22
  store i8 0, ptr %9, align 16, !tbaa !23
  %39 = call i32 @rb_fork_async_signal_safe(ptr noundef nonnull %6, ptr noundef nonnull @chfunc, ptr noundef nonnull %8, i64 noundef 4, ptr noundef nonnull %9, i64 noundef 32) #10
  %40 = icmp slt i32 %39, 0
  br i1 %40, label %41, label %establishShell.exit

41:                                               ; preds = %getDevice.exit.i
  %42 = call ptr @rb_errno_ptr() #10
  %43 = load i32, ptr %42, align 4, !tbaa !10
  %44 = call i32 @close(i32 noundef %35) #10
  %45 = call i32 @close(i32 noundef %36) #10
  %46 = load i64, ptr %29, align 8, !tbaa !16
  call void @rb_execarg_parent_end(i64 noundef %46) #10
  %47 = call ptr @rb_errno_ptr() #10
  store i32 %43, ptr %47, align 4, !tbaa !10
  %48 = load i32, ptr %6, align 4, !tbaa !10
  %.not31.i = icmp eq i32 %48, 0
  br i1 %.not31.i, label %50, label %49

49:                                               ; preds = %41
  call void @rb_jump_tag(i32 noundef %48) #11
  unreachable

50:                                               ; preds = %41
  %51 = load i8, ptr %9, align 16, !tbaa !23
  %.not32.i = icmp eq i8 %51, 0
  %52 = select i1 %.not32.i, ptr @.str.11, ptr %9
  call void @rb_sys_fail(ptr noundef nonnull %52) #11
  unreachable

establishShell.exit:                              ; preds = %getDevice.exit.i
  %53 = call i32 @close(i32 noundef %36) #10
  %54 = load i64, ptr %29, align 8, !tbaa !16
  call void @rb_execarg_parent_end(i64 noundef %54) #10
  %55 = getelementptr inbounds nuw i8, ptr %11, i64 4
  store i32 %39, ptr %55, align 4, !tbaa !24
  store i32 %35, ptr %11, align 4, !tbaa !26
  call void @llvm.lifetime.start.p0(i64 8, ptr nonnull %10) #10
  store ptr %29, ptr %10, align 8, !tbaa !27
  call void asm sideeffect "", "*m,~{dirflag},~{fpsr},~{flags}"(ptr nonnull elementtype(ptr) %10) #10, !srcloc !29
  %56 = load ptr, ptr %10, align 8, !tbaa !27
  call void @llvm.lifetime.end.p0(i64 8, ptr nonnull %10) #10
  %57 = load volatile i64, ptr %56, align 8, !tbaa !6
  call void @llvm.lifetime.end.p0(i64 32, ptr nonnull %9) #10
  call void @llvm.lifetime.end.p0(i64 32, ptr nonnull %8) #10
  call void @llvm.lifetime.end.p0(i64 8, ptr nonnull %7) #10
  call void @llvm.lifetime.end.p0(i64 4, ptr nonnull %6) #10
  call void @llvm.lifetime.end.p0(i64 4, ptr nonnull %5) #10
  call void @llvm.lifetime.end.p0(i64 4, ptr nonnull %4) #10
  %58 = call i64 @rb_str_new_cstr(ptr noundef nonnull %12) #10
  %59 = call i64 @rb_obj_freeze(i64 noundef %58) #10
  %60 = load i64, ptr @rb_cFile, align 8, !tbaa !6
  %61 = call i64 @rb_io_open_descriptor(i64 noundef %60, i32 noundef %35, i32 noundef 1, i64 noundef %59, i64 noundef 4, ptr noundef null) #10
  %62 = call i32 @rb_cloexec_dup(i32 noundef %35) #10
  %63 = icmp eq i32 %62, -1
  br i1 %63, label %64, label %65

64:                                               ; preds = %establishShell.exit
  call void @rb_sys_fail(ptr noundef nonnull @.str.7) #11
  unreachable

65:                                               ; preds = %establishShell.exit
  %66 = load i64, ptr @rb_cFile, align 8, !tbaa !6
  %67 = call i64 @rb_io_open_descriptor(i64 noundef %66, i32 noundef %62, i32 noundef 2186, i64 noundef %59, i64 noundef 4, ptr noundef null) #10
  %68 = call i64 @rb_ary_new_capa(i64 noundef 3) #10
  call void @rb_ary_store(i64 noundef %68, i64 noundef 0, i64 noundef %61) #10
  call void @rb_ary_store(i64 noundef %68, i64 noundef 1, i64 noundef %67) #10
  %69 = shl nuw i32 %39, 1
  %70 = or disjoint i32 %69, 1
  %71 = zext i32 %70 to i64
  call void @rb_ary_store(i64 noundef %68, i64 noundef 2, i64 noundef %71) #10
  %72 = call i32 @rb_block_given_p() #10
  %.not = icmp eq i32 %72, 0
  br i1 %.not, label %76, label %73

73:                                               ; preds = %65
  %74 = ptrtoint ptr %11 to i64
  %75 = call i64 @rb_ensure(ptr noundef nonnull @rb_yield, i64 noundef %68, ptr noundef nonnull @pty_detach_process, i64 noundef %74) #10
  br label %76

76:                                               ; preds = %65, %73
  %.0 = phi i64 [ 4, %73 ], [ %68, %65 ]
  call void @llvm.lifetime.end.p0(i64 16, ptr nonnull %12) #10
  call void @llvm.lifetime.end.p0(i64 8, ptr nonnull %11) #10
  ret i64 %.0
}